; Function Attrs: nounwind uwtable
define internal fastcc void @alt_merge_node_opt_info(ptr noundef nonnull %0, ptr noundef nonnull readonly captures(none) %1, ptr noundef nonnull readonly captures(none) %2) unnamed_addr #6 {
  %4 = getelementptr inbounds nuw i8, ptr %0, i64 8
  %5 = getelementptr inbounds nuw i8, ptr %1, i64 8
  %.val = load i32, ptr %5, align 4, !tbaa !54
  %6 = getelementptr i8, ptr %1, i64 12
  %.val16 = load i32, ptr %6, align 4, !tbaa !53
  %7 = load i32, ptr %4, align 4, !tbaa !54
  %8 = and i32 %7, %.val
  store i32 %8, ptr %4, align 4, !tbaa !54
  %9 = getelementptr inbounds nuw i8, ptr %0, i64 12
  %10 = load i32, ptr %9, align 4, !tbaa !53
  %11 = and i32 %10, %.val16
  store i32 %11, ptr %9, align 4, !tbaa !53
  %12 = getelementptr inbounds nuw i8, ptr %0, i64 16
  %13 = getelementptr inbounds nuw i8, ptr %1, i64 16
  tail call fastcc void @alt_merge_opt_exact(ptr noundef %12, ptr noundef %13, ptr noundef %2)
  %14 = getelementptr inbounds nuw i8, ptr %0, i64 64
  %15 = getelementptr inbounds nuw i8, ptr %1, i64 64
  tail call fastcc void @alt_merge_opt_exact(ptr noundef %14, ptr noundef %15, ptr noundef %2)
  %16 = getelementptr inbounds nuw i8, ptr %0, i64 112
  %17 = getelementptr inbounds nuw i8, ptr %1, i64 112
  tail call fastcc void @alt_merge_opt_exact(ptr noundef %16, ptr noundef %17, ptr noundef %2)
  %18 = getelementptr inbounds nuw i8, ptr %2, i64 8
  %19 = load ptr, ptr %18, align 8, !tbaa !47
  %20 = getelementptr inbounds nuw i8, ptr %0, i64 160
  %21 = getelementptr inbounds nuw i8, ptr %1, i64 160
  %22 = getelementptr inbounds nuw i8, ptr %0, i64 176
  %23 = load i32, ptr %22, align 4, !tbaa !296
  %24 = icmp eq i32 %23, 0
  br i1 %24, label %alt_merge_opt_map.exit, label %25

25:                                               ; preds = %3
  %26 = getelementptr inbounds nuw i8, ptr %1, i64 176
  %27 = load i32, ptr %26, align 4, !tbaa !296
  %28 = icmp eq i32 %27, 0
  br i1 %28, label %34, label %29

29:                                               ; preds = %25
  %30 = getelementptr inbounds nuw i8, ptr %0, i64 164
  %31 = load i32, ptr %30, align 4, !tbaa !84
  %32 = load i32, ptr %21, align 4, !tbaa !83
  %33 = icmp ult i32 %31, %32
  br i1 %33, label %34, label %35

34:                                               ; preds = %29, %25
  tail call void @llvm.memset.p0.i64(ptr noundef nonnull align 4 dereferenceable(276) %20, i8 0, i64 276, i1 false)
  br label %alt_merge_opt_map.exit

35:                                               ; preds = %29
  %36 = load i32, ptr %20, align 4, !tbaa !54
  %37 = icmp ugt i32 %36, %32
  br i1 %37, label %38, label %39

38:                                               ; preds = %35
  store i32 %32, ptr %20, align 4, !tbaa !54
  br label %39

39:                                               ; preds = %38, %35
  %40 = getelementptr inbounds nuw i8, ptr %1, i64 164
  %41 = load i32, ptr %40, align 4, !tbaa !53
  %42 = icmp ult i32 %31, %41
  br i1 %42, label %43, label %mml_alt_merge.exit.i

43:                                               ; preds = %39
  store i32 %41, ptr %30, align 4, !tbaa !53
  br label %mml_alt_merge.exit.i

mml_alt_merge.exit.i:                             ; preds = %43, %39
  %44 = getelementptr inbounds nuw i8, ptr %1, i64 180
  %45 = getelementptr inbounds nuw i8, ptr %0, i64 180
  %46 = getelementptr inbounds nuw i8, ptr %19, i64 20
  br label %47

47:                                               ; preds = %64, %mml_alt_merge.exit.i
  %indvars.iv.i = phi i64 [ 0, %mml_alt_merge.exit.i ], [ %indvars.iv.next.i, %64 ]
  %.026.i = phi i32 [ 0, %mml_alt_merge.exit.i ], [ %.1.i, %64 ]
  %48 = getelementptr inbounds nuw [256 x i8], ptr %44, i64 0, i64 %indvars.iv.i
  %49 = load i8, ptr %48, align 1, !tbaa !20
  %.not.i = icmp eq i8 %49, 0
  %.phi.trans.insert.i = getelementptr inbounds nuw [256 x i8], ptr %45, i64 0, i64 %indvars.iv.i
  br i1 %.not.i, label %50, label %.thread.i

.thread.i:                                        ; preds = %47
  store i8 1, ptr %.phi.trans.insert.i, align 1, !tbaa !20
  br label %52

50:                                               ; preds = %47
  %.pre.i = load i8, ptr %.phi.trans.insert.i, align 1, !tbaa !20
  %51 = icmp eq i8 %.pre.i, 0
  br i1 %51, label %64, label %52

52:                                               ; preds = %50, %.thread.i
  %53 = icmp samesign ult i64 %indvars.iv.i, 128
  br i1 %53, label %54, label %map_position_value.exit.i

54:                                               ; preds = %52
  %55 = icmp eq i64 %indvars.iv.i, 0
  br i1 %55, label %56, label %59

56:                                               ; preds = %54
  %57 = load i32, ptr %46, align 4, !tbaa !66
  %58 = icmp sgt i32 %57, 1
  br i1 %58, label %map_position_value.exit.i, label %59

59:                                               ; preds = %56, %54
  %60 = getelementptr inbounds nuw [128 x i16], ptr @map_position_value.Vals, i64 0, i64 %indvars.iv.i
  %61 = load i16, ptr %60, align 2, !tbaa !68
  %62 = sext i16 %61 to i32
  br label %map_position_value.exit.i

map_position_value.exit.i:                        ; preds = %59, %56, %52
  %.0.i.i = phi i32 [ %62, %59 ], [ 20, %56 ], [ 4, %52 ]
  %63 = add nsw i32 %.0.i.i, %.026.i
  br label %64

64:                                               ; preds = %map_position_value.exit.i, %50
  %.1.i = phi i32 [ %63, %map_position_value.exit.i ], [ %.026.i, %50 ]
  %indvars.iv.next.i = add nuw nsw i64 %indvars.iv.i, 1
  %exitcond.not.i = icmp eq i64 %indvars.iv.next.i, 256
  br i1 %exitcond.not.i, label %65, label %47, !llvm.loop !317

65:                                               ; preds = %64
  store i32 %.1.i, ptr %22, align 4, !tbaa !296
  %66 = getelementptr inbounds nuw i8, ptr %0, i64 168
  %67 = getelementptr inbounds nuw i8, ptr %1, i64 168
  %.val.i = load i32, ptr %67, align 4, !tbaa !54
  %68 = getelementptr i8, ptr %1, i64 172
  %.val23.i = load i32, ptr %68, align 4, !tbaa !53
  %69 = load i32, ptr %66, align 4, !tbaa !54
  %70 = and i32 %69, %.val.i
  store i32 %70, ptr %66, align 4, !tbaa !54
  %71 = getelementptr inbounds nuw i8, ptr %0, i64 172
  %72 = load i32, ptr %71, align 4, !tbaa !53
  %73 = and i32 %72, %.val23.i
  store i32 %73, ptr %71, align 4, !tbaa !53
  br label %alt_merge_opt_map.exit

alt_merge_opt_map.exit:                           ; preds = %3, %34, %65
  %74 = load i32, ptr %0, align 4, !tbaa !54
  %75 = load i32, ptr %1, align 4, !tbaa !54
  %76 = icmp ugt i32 %74, %75
  br i1 %76, label %77, label %78

77:                                               ; preds = %alt_merge_opt_map.exit
  store i32 %75, ptr %0, align 4, !tbaa !54
  br label %78

78:                                               ; preds = %77, %alt_merge_opt_map.exit
  %79 = getelementptr inbounds nuw i8, ptr %0, i64 4
  %80 = load i32, ptr %79, align 4, !tbaa !53
  %81 = getelementptr inbounds nuw i8, ptr %1, i64 4
  %82 = load i32, ptr %81, align 4, !tbaa !53
  %83 = icmp ult i32 %80, %82
  br i1 %83, label %84, label %mml_alt_merge.exit

84:                                               ; preds = %78
  store i32 %82, ptr %79, align 4, !tbaa !53
  br label %mml_alt_merge.exit

mml_alt_merge.exit:                               ; preds = %78, %84
  ret void
}